Certificate:
    Data:
        Version: 3 (0x2)
        Serial Number: 737878736898 (0xabcd000002)
    Signature Algorithm: sha256WithRSAEncryption
        Issuer: C=TW, ST=Tapei, L=Tapei, O=PracNet, OU=Pratical TLS, CN=Root CA
        Validity
            Not Before: Mar  8 15:56:44 2022 GMT
            Not After : Mar  8 15:56:44 2023 GMT
        Subject: C=TW, ST=Taipei, L=Tapei, O=bilbo, CN=*.bilbo.com
        Subject Public Key Info:
            Public Key Algorithm: rsaEncryption
                Public-Key: (2048 bit)
                Modulus:
                    00:c5:b5:2a:e8:d1:b0:8b:9e:0a:3b:e1:70:6d:3c:
                    70:31:91:af:a4:18:af:91:ca:ef:60:31:ec:bd:15:
                    8b:06:3d:20:4f:de:0a:06:39:23:b7:61:aa:76:8b:
                    71:17:98:e1:09:b5:6f:0d:7d:a3:4a:1e:11:12:99:
                    ae:49:35:dc:5a:9d:b2:78:d1:a9:22:5b:8b:a6:e5:
                    bd:3d:06:6a:38:22:4b:60:2d:62:d8:7d:51:13:31:
                    2b:79:92:d6:35:d5:74:2f:cf:e5:5b:fd:22:af:e5:
                    8c:f6:3c:c7:a7:5b:4f:bc:41:82:5f:77:22:85:d9:
                    3a:a9:8d:9e:d9:a2:79:1a:39:b7:2d:c4:12:f9:fc:
                    e6:af:e8:36:10:71:f2:c8:f4:d9:d7:ce:df:42:68:
                    69:30:32:d8:e3:a5:6c:6e:fb:9a:da:d2:5d:27:73:
                    ec:af:b9:56:29:9c:d6:76:c8:da:07:7b:7d:42:4e:
                    e6:e3:f7:27:cb:a7:d0:9c:d9:ce:ac:a7:dc:21:1d:
                    ac:7d:7d:b4:aa:f3:8c:84:2a:18:9b:24:f8:bf:04:
                    c6:99:aa:6e:f4:b6:a9:71:84:0a:f9:52:87:40:43:
                    43:10:0d:ea:f1:74:b4:dc:ba:e3:de:c8:e3:9a:fd:
                    2f:db:6a:a3:13:6f:b0:41:66:65:af:6a:9e:69:72:
                    d7:33
                Exponent: 65537 (0x10001)
        X509v3 extensions:
            X509v3 Basic Constraints: 
                CA:FALSE
            X509v3 Subject Key Identifier: 
                B9:EB:87:AA:66:EE:DE:6A:29:23:FB:21:8D:57:1B:6B:2E:30:2E:17
            X509v3 Authority Key Identifier: 
                DirName:/C=TW/ST=Tapei/L=Tapei/O=PracNet/OU=Pratical TLS/CN=Root CA
                serial:E3:3E:1D:D3:9D:94:31:D1

            X509v3 Key Usage: 
                Digital Signature, Key Encipherment
            X509v3 Extended Key Usage: 
                TLS Web Server Authentication
            X509v3 Subject Alternative Name: 
                DNS:bilbo.com, DNS:en.admin.bilbo.com, DNS:fr.admin.bilbo.com, DNS:es.admin.bilbo.com, DNS:bilbobaggins.com, DNS:*.bilbobaggins.com, DNS:bagend.com, DNS:*.bagend.com
    Signature Algorithm: sha256WithRSAEncryption
         a0:8c:f0:64:f6:d3:9e:b5:2d:30:17:e7:21:ce:3f:2b:57:c6:
         a6:65:87:94:f4:3a:ef:80:ae:5b:e1:9e:81:be:ba:9b:f2:bc:
         fe:20:bf:ea:23:0e:10:cc:13:d5:4c:1c:9b:5e:95:a1:dc:d0:
         4a:d0:43:0d:f0:08:dd:e1:f9:93:55:08:9b:11:de:81:d3:b4:
         f9:bb:71:a1:d7:77:39:c3:da:9e:b1:a9:c0:c0:98:90:c9:cd:
         32:05:34:e9:73:bd:f2:b7:cb:3a:17:22:54:09:55:97:d4:0b:
         7a:99:18:e0:8c:4e:3e:27:15:9b:de:3c:c9:c6:4b:75:76:e6:
         4d:3b:02:4a:a8:8d:4a:c6:84:22:5f:24:f1:a6:da:c4:0c:95:
         ab:1c:f5:6c:59:52:70:80:22:25:6f:cd:72:43:42:34:a3:aa:
         50:7c:a0:67:73:38:bc:20:f5:f1:7b:96:f7:37:68:6b:55:4f:
         89:cc:7d:3e:34:5e:ad:ee:a3:ff:61:bb:e4:55:2f:be:64:80:
         dd:a4:2d:7c:09:50:f1:63:a0:7e:7a:0f:4e:2d:88:c1:4b:07:
         02:bd:3c:2a:68:72:82:49:9a:50:6d:d7:61:46:a4:d7:f1:b9:
         d2:93:b2:29:0d:83:8b:5a:65:32:6f:9a:7e:25:85:25:6f:f2:
         e2:9a:44:cc:17:33:77:d4:b2:9d:51:ae:01:1a:20:b1:b8:a3:
         b2:10:5d:7d:f6:86:66:4f:32:c3:81:c4:eb:5b:57:e2:80:52:
         9c:b0:dc:c3:fd:5a:72:9e:18:0c:65:f0:5b:de:c2:a8:65:7b:
         74:be:00:4d:de:f8:8a:c7:a1:75:55:b3:76:ff:e9:ad:a8:8d:
         07:5e:26:4b:56:51:d4:67:c9:64:cc:e5:69:24:2d:f7:44:1a:
         73:7d:fa:ac:0e:bd:d2:3a:7d:90:18:c1:7b:21:d4:e2:91:cc:
         f7:5c:cb:03:b8:f9:15:b0:a0:51:9f:80:73:3d:da:da:42:fe:
         f2:d6:77:d5:4a:e7:ed:61:ca:17:d1:88:48:33:b1:fa:12:03:
         91:08:ad:6a:7c:23:2c:88:98:9c:c3:4c:1a:c1:68:26:cb:16:
         02:d8:81:c0:17:a8:e3:2c:a8:71:e7:76:82:1e:34:14:9a:7e:
         66:90:96:ba:c8:5b:c7:1f:07:65:85:3f:33:7e:bb:04:e0:03:
         3a:b0:ce:86:80:59:e6:b5:c6:43:29:b4:5d:6d:5a:bf:0f:b9:
         ff:30:34:03:f6:49:db:51:2f:9f:dd:27:7d:31:fd:d9:44:a5:
         8d:d1:1d:32:ec:5d:14:4a:c8:21:9f:71:8d:3c:e3:e2:e7:e6:
         0d:90:fa:13:0a:6e:30:e3
-----BEGIN CERTIFICATE-----
MIIFqDCCA5CgAwIBAgIGAKvNAAACMA0GCSqGSIb3DQEBCwUAMGgxCzAJBgNVBAYT
AlRXMQ4wDAYDVQQIDAVUYXBlaTEOMAwGA1UEBwwFVGFwZWkxEDAOBgNVBAoMB1By
YWNOZXQxFTATBgNVBAsMDFByYXRpY2FsIFRMUzEQMA4GA1UEAwwHUm9vdCBDQTAe
Fw0yMjAzMDgxNTU2NDRaFw0yMzAzMDgxNTU2NDRaMFQxCzAJBgNVBAYTAlRXMQ8w
DQYDVQQIDAZUYWlwZWkxDjAMBgNVBAcMBVRhcGVpMQ4wDAYDVQQKDAViaWxibzEU
MBIGA1UEAwwLKi5iaWxiby5jb20wggEiMA0GCSqGSIb3DQEBAQUAA4IBDwAwggEK
AoIBAQDFtSro0bCLngo74XBtPHAxka+kGK+Ryu9gMey9FYsGPSBP3goGOSO3Yap2
i3EXmOEJtW8NfaNKHhESma5JNdxanbJ40akiW4um5b09Bmo4IktgLWLYfVETMSt5
ktY11XQvz+Vb/SKv5Yz2PMenW0+8QYJfdyKF2TqpjZ7ZonkaObctxBL5/Oav6DYQ
cfLI9NnXzt9CaGkwMtjjpWxu+5ra0l0nc+yvuVYpnNZ2yNoHe31CTubj9yfLp9Cc
2c6sp9whHax9fbSq84yEKhibJPi/BMaZqm70tqlxhAr5UodAQ0MQDerxdLTcuuPe
yOOa/S/baqMTb7BBZmWvap5pctczAgMBAAGjggFqMIIBZjAJBgNVHRMEAjAAMB0G
A1UdDgQWBBS564eqZu7eaikj+yGNVxtrLjAuFzCBggYDVR0jBHsweaFspGowaDEL
MAkGA1UEBhMCVFcxDjAMBgNVBAgMBVRhcGVpMQ4wDAYDVQQHDAVUYXBlaTEQMA4G
A1UECgwHUHJhY05ldDEVMBMGA1UECwwMUHJhdGljYWwgVExTMRAwDgYDVQQDDAdS
b290IENBggkA4z4d052UMdEwCwYDVR0PBAQDAgWgMBMGA1UdJQQMMAoGCCsGAQUF
BwMBMIGSBgNVHREEgYowgYeCCWJpbGJvLmNvbYISZW4uYWRtaW4uYmlsYm8uY29t
ghJmci5hZG1pbi5iaWxiby5jb22CEmVzLmFkbWluLmJpbGJvLmNvbYIQYmlsYm9i
YWdnaW5zLmNvbYISKi5iaWxib2JhZ2dpbnMuY29tggpiYWdlbmQuY29tggwqLmJh
Z2VuZC5jb20wDQYJKoZIhvcNAQELBQADggIBAKCM8GT20561LTAX5yHOPytXxqZl
h5T0Ou+ArlvhnoG+upvyvP4gv+ojDhDME9VMHJtelaHc0ErQQw3wCN3h+ZNVCJsR
3oHTtPm7caHXdznD2p6xqcDAmJDJzTIFNOlzvfK3yzoXIlQJVZfUC3qZGOCMTj4n
FZvePMnGS3V25k07AkqojUrGhCJfJPGm2sQMlasc9WxZUnCAIiVvzXJDQjSjqlB8
oGdzOLwg9fF7lvc3aGtVT4nMfT40Xq3uo/9hu+RVL75kgN2kLXwJUPFjoH56D04t
iMFLBwK9PCpocoJJmlBt12FGpNfxudKTsikNg4taZTJvmn4lhSVv8uKaRMwXM3fU
sp1RrgEaILG4o7IQXX32hmZPMsOBxOtbV+KAUpyw3MP9WnKeGAxl8Fvewqhle3S+
AE3e+IrHoXVVs3b/6a2ojQdeJktWUdRnyWTM5WkkLfdEGnN9+qwOvdI6fZAYwXsh
1OKRzPdcywO4+RWwoFGfgHM92tpC/vLWd9VK5+1hyhfRiEgzsfoSA5EIrWp8IyyI
mJzDTBrBaCbLFgLYgcAXqOMsqHHndoIeNBSafmaQlrrIW8cfB2WFPzN+uwTgAzqw
zoaAWea1xkMptF1tWr8Puf8wNAP2SdtRL5/dJ30x/dlEpY3RHTLsXRRKyCGfcY08
4+Ln5g2Q+hMKbjDj
-----END CERTIFICATE-----
