Certificate:
    Data:
        Version: 3 (0x2)
        Serial Number: 737878736897 (0xabcd000001)
    Signature Algorithm: sha256WithRSAEncryption
        Issuer: C=TW, ST=Tapei, L=Tapei, O=PracNet, OU=Pratical TLS, CN=Root CA
        Validity
            Not Before: Mar  8 14:58:11 2022 GMT
            Not After : Mar  8 14:58:11 2023 GMT
        Subject: C=TW, ST=Taipei, L=Taipei, O=PracNet, OU=Practical TLS, CN=frodo.com
        Subject Public Key Info:
            Public Key Algorithm: rsaEncryption
                Public-Key: (2048 bit)
                Modulus:
                    00:c1:b4:b4:49:09:bb:33:a3:16:e7:cf:0e:cb:e0:
                    33:b6:7a:6b:e4:0d:ce:a4:8e:77:f2:74:e7:56:44:
                    66:ac:1d:6d:54:06:4d:db:f4:ff:31:4d:a0:40:cd:
                    85:7b:56:ae:ca:ff:e1:d5:e9:25:c6:c3:4f:cd:85:
                    fc:b3:1a:96:76:73:29:36:a6:1a:1d:05:d6:8b:a6:
                    3b:c3:04:bb:4e:6c:5d:2f:65:3d:b8:22:f4:70:1b:
                    70:42:d3:72:47:a9:de:f1:04:12:25:ee:6c:f8:fa:
                    81:ce:2e:b5:a1:07:ef:a6:e5:4a:57:f4:3b:70:a2:
                    8a:e9:c4:ba:2b:e7:f2:7a:d0:31:cf:84:2f:91:7f:
                    03:c9:eb:cd:5d:03:af:71:7c:7e:c7:42:1d:3a:88:
                    9a:cc:26:a6:42:9e:e1:bd:92:86:2c:a6:81:2a:4d:
                    e8:48:4d:28:5f:94:8c:04:58:96:89:7d:c6:f0:c7:
                    28:3a:28:89:ea:58:75:76:61:f1:0a:8e:76:38:45:
                    34:d7:be:8f:64:5a:d1:e6:ef:39:f3:cd:1d:3a:f4:
                    5b:8c:50:0d:72:a9:88:10:97:2f:34:99:6d:0e:e3:
                    11:1b:9f:1e:e3:15:66:f6:04:48:82:fd:fd:11:73:
                    b8:74:82:7d:1f:ae:14:93:3d:77:90:20:8c:02:3c:
                    0d:a3
                Exponent: 65537 (0x10001)
        X509v3 extensions:
            X509v3 Basic Constraints: 
                CA:FALSE
            X509v3 Subject Key Identifier: 
                C1:57:9E:8E:36:7D:C8:A5:3F:2C:A8:1E:99:8D:39:24:20:AD:A8:11
            X509v3 Authority Key Identifier: 
                DirName:/C=TW/ST=Tapei/L=Tapei/O=PracNet/OU=Pratical TLS/CN=Root CA
                serial:E3:3E:1D:D3:9D:94:31:D1

            X509v3 Key Usage: 
                Digital Signature, Key Encipherment
            X509v3 Extended Key Usage: 
                TLS Web Server Authentication
    Signature Algorithm: sha256WithRSAEncryption
         21:7f:1e:9b:f8:43:51:a6:29:41:5b:0b:54:ed:af:42:bd:3c:
         98:3d:3f:67:35:88:1b:82:ff:b4:ac:6d:be:6c:20:89:e3:25:
         6e:d1:7c:4a:59:a7:bb:5c:b9:b9:7c:91:88:b3:63:e0:93:0e:
         50:10:93:53:33:29:20:5e:9a:fa:57:64:96:2a:1a:cb:56:82:
         f8:79:92:b4:45:ce:ad:00:8c:5f:42:ca:01:e2:6f:f7:78:17:
         05:cc:c0:7a:e2:35:f1:a1:46:f0:1c:0a:82:28:e4:ab:9e:b2:
         f0:17:c6:05:e7:30:c0:b8:c2:ea:3e:7b:4d:7a:9f:0e:cc:67:
         0b:be:9a:99:f1:e0:75:e4:6c:ea:2e:9c:28:2a:65:ea:30:09:
         6a:89:14:b3:d9:8c:b8:6a:fd:f4:48:30:23:e0:c5:8e:a9:c3:
         1a:5e:21:49:85:1b:94:d6:71:73:15:06:6b:7f:20:e6:bf:1d:
         10:86:02:44:99:d4:38:63:5b:16:21:c3:b8:e6:27:41:17:31:
         c3:66:3c:0b:d8:d4:d3:f4:08:a0:81:6d:c9:57:b8:b1:ec:e5:
         5c:5e:c5:01:16:4f:d1:b7:70:51:bd:6c:dc:44:ec:53:87:78:
         b1:79:19:72:22:6f:55:42:2d:6f:e4:fa:14:cc:18:ed:1b:04:
         b8:d4:aa:b5:79:4a:cd:de:75:b0:dd:63:53:d0:d7:22:95:01:
         20:79:ac:c6:4a:0b:d4:2c:39:a4:84:a2:71:ed:26:5e:f1:ca:
         df:13:77:c1:3c:7e:a2:90:36:73:c8:32:9e:53:55:88:29:23:
         5e:70:9d:0f:46:02:3c:2a:dd:49:c2:c0:57:61:c9:50:7c:51:
         f6:15:a9:54:c9:48:f6:2b:94:9d:32:d4:ee:95:ce:90:48:05:
         07:82:46:90:1d:56:7d:8d:75:1d:46:db:7a:a9:0e:e4:3d:7b:
         06:a8:a9:01:60:e5:53:c1:cd:84:a9:99:20:93:43:cb:9d:f0:
         fa:8d:c1:6c:5f:20:e8:c5:1f:2f:e4:74:ff:d1:62:50:57:35:
         87:6b:64:76:ba:3f:25:ab:26:fa:4e:34:a3:06:38:ac:47:ff:
         89:22:d4:d2:93:31:96:d1:a5:5c:32:dd:a0:99:17:18:73:a4:
         c3:eb:10:80:f0:2e:40:2d:f2:22:0c:0c:f0:07:05:3d:7e:97:
         67:05:ba:24:65:56:3a:47:d8:08:f2:84:30:ca:6c:26:19:3a:
         7a:cc:0a:79:2a:94:91:69:99:18:9e:73:85:e4:92:28:a5:0e:
         b3:5c:f2:d3:a0:d4:cc:da:e8:74:bb:ce:54:03:ec:77:3d:3d:
         57:85:c3:ca:61:89:20:7f
-----BEGIN CERTIFICATE-----
MIIFKjCCAxKgAwIBAgIGAKvNAAABMA0GCSqGSIb3DQEBCwUAMGgxCzAJBgNVBAYT
AlRXMQ4wDAYDVQQIDAVUYXBlaTEOMAwGA1UEBwwFVGFwZWkxEDAOBgNVBAoMB1By
YWNOZXQxFTATBgNVBAsMDFByYXRpY2FsIFRMUzEQMA4GA1UEAwwHUm9vdCBDQTAe
Fw0yMjAzMDgxNDU4MTFaFw0yMzAzMDgxNDU4MTFaMG0xCzAJBgNVBAYTAlRXMQ8w
DQYDVQQIDAZUYWlwZWkxDzANBgNVBAcMBlRhaXBlaTEQMA4GA1UECgwHUHJhY05l
dDEWMBQGA1UECwwNUHJhY3RpY2FsIFRMUzESMBAGA1UEAwwJZnJvZG8uY29tMIIB
IjANBgkqhkiG9w0BAQEFAAOCAQ8AMIIBCgKCAQEAwbS0SQm7M6MW588Oy+Aztnpr
5A3OpI538nTnVkRmrB1tVAZN2/T/MU2gQM2Fe1auyv/h1eklxsNPzYX8sxqWdnMp
NqYaHQXWi6Y7wwS7TmxdL2U9uCL0cBtwQtNyR6ne8QQSJe5s+PqBzi61oQfvpuVK
V/Q7cKKK6cS6K+fyetAxz4QvkX8DyevNXQOvcXx+x0IdOoiazCamQp7hvZKGLKaB
Kk3oSE0oX5SMBFiWiX3G8McoOiiJ6lh1dmHxCo52OEU0176PZFrR5u85880dOvRb
jFANcqmIEJcvNJltDuMRG58e4xVm9gRIgv39EXO4dIJ9H64Ukz13kCCMAjwNowID
AQABo4HUMIHRMAkGA1UdEwQCMAAwHQYDVR0OBBYEFMFXno42fcilPyyoHpmNOSQg
ragRMIGCBgNVHSMEezB5oWykajBoMQswCQYDVQQGEwJUVzEOMAwGA1UECAwFVGFw
ZWkxDjAMBgNVBAcMBVRhcGVpMRAwDgYDVQQKDAdQcmFjTmV0MRUwEwYDVQQLDAxQ
cmF0aWNhbCBUTFMxEDAOBgNVBAMMB1Jvb3QgQ0GCCQDjPh3TnZQx0TALBgNVHQ8E
BAMCBaAwEwYDVR0lBAwwCgYIKwYBBQUHAwEwDQYJKoZIhvcNAQELBQADggIBACF/
Hpv4Q1GmKUFbC1Ttr0K9PJg9P2c1iBuC/7Ssbb5sIInjJW7RfEpZp7tcubl8kYiz
Y+CTDlAQk1MzKSBemvpXZJYqGstWgvh5krRFzq0AjF9CygHib/d4FwXMwHriNfGh
RvAcCoIo5KuesvAXxgXnMMC4wuo+e016nw7MZwu+mpnx4HXkbOounCgqZeowCWqJ
FLPZjLhq/fRIMCPgxY6pwxpeIUmFG5TWcXMVBmt/IOa/HRCGAkSZ1DhjWxYhw7jm
J0EXMcNmPAvY1NP0CKCBbclXuLHs5VxexQEWT9G3cFG9bNxE7FOHeLF5GXIib1VC
LW/k+hTMGO0bBLjUqrV5Ss3edbDdY1PQ1yKVASB5rMZKC9QsOaSEonHtJl7xyt8T
d8E8fqKQNnPIMp5TVYgpI15wnQ9GAjwq3UnCwFdhyVB8UfYVqVTJSPYrlJ0y1O6V
zpBIBQeCRpAdVn2NdR1G23qpDuQ9ewaoqQFg5VPBzYSpmSCTQ8ud8PqNwWxfIOjF
Hy/kdP/RYlBXNYdrZHa6PyWrJvpONKMGOKxH/4ki1NKTMZbRpVwy3aCZFxhzpMPr
EIDwLkAt8iIMDPAHBT1+l2cFuiRlVjpH2AjyhDDKbCYZOnrMCnkqlJFpmRiec4Xk
kiilDrNc8tOg1Mza6HS7zlQD7Hc9PVeFw8phiSB/
-----END CERTIFICATE-----
